target datalayout = "e-m:e-p270:32:32-p271:32:32-p272:64:64-i64:64-i128:128-f80:128-n8:16:32:64-S128"
target triple = "x86_64-pc-linux-gnu"

%"struct.std::_Rb_tree_header" = type { %"struct.std::_Rb_tree_node_base", i64 }
%"struct.std::_Rb_tree_node_base" = type { i32, ptr, ptr, ptr }
%"class.std::set.24" = type { %"class.std::_Rb_tree.25" }
%"class.std::_Rb_tree.25" = type { %"struct.std::_Rb_tree<long, long, std::_Identity<long>, std::less<long>>::_Rb_tree_impl" }
%"struct.std::_Rb_tree<long, long, std::_Identity<long>, std::less<long>>::_Rb_tree_impl" = type { %"struct.std::_Rb_tree_key_compare.29", %"struct.std::_Rb_tree_header" }
%"struct.std::_Rb_tree_key_compare.29" = type { %"struct.std::less.30" }
%"struct.std::less.30" = type { i8 }
%"class.std::initializer_list" = type { ptr, i64 }
%"class.std::allocator.32" = type { i8 }

@__dso_handle = external hidden global i8
@_ZN3nix16curlFileTransfer12TransferItem18successfulStatusesE = linkonce_odr global %"class.std::set.24" zeroinitializer, comdat, align 8
@_ZGVN3nix16curlFileTransfer12TransferItem18successfulStatusesE = linkonce_odr global i64 0, comdat($_ZN3nix16curlFileTransfer12TransferItem18successfulStatusesE), align 8
@constinit = private constant [6 x i64] [i64 200, i64 201, i64 204, i64 206, i64 304, i64 0], align 8

; Function Attrs: mustprogress nounwind uwtable
define linkonce_odr void @_ZNSt15__new_allocatorIlEC2Ev(ptr noundef nonnull align 1 dereferenceable(1) %0) unnamed_addr #2 comdat align 2 {
  %2 = alloca ptr, align 8
  store ptr %0, ptr %2, align 8
  ret void
}

; Function Attrs: mustprogress nounwind uwtable
define linkonce_odr void @_ZNSaIlED2Ev(ptr noundef nonnull align 1 dereferenceable(1) %0) unnamed_addr #2 comdat align 2 {
  %2 = alloca ptr, align 8
  store ptr %0, ptr %2, align 8
  ret void
}

; Function Attrs: mustprogress nounwind uwtable
define linkonce_odr void @_ZNSaIlEC2Ev(ptr noundef nonnull align 1 dereferenceable(1) %0) unnamed_addr #2 comdat align 2 {
  %2 = alloca ptr, align 8
  store ptr %0, ptr %2, align 8
  %3 = load ptr, ptr %2, align 8
  call void @_ZNSt15__new_allocatorIlEC2Ev(ptr noundef nonnull align 1 dereferenceable(1) %3) #1
  ret void
}

; Function Attrs: uwtable
define internal void @__cxx_global_var_init.6() #0 section ".text.startup" comdat($_ZN3nix16curlFileTransfer12TransferItem18successfulStatusesE) personality ptr @__gxx_personality_v0 {
  %1 = alloca %"class.std::initializer_list", align 8
  %2 = alloca [6 x i64], align 8
  %3 = alloca %"struct.std::less.30", align 1
  %4 = alloca %"class.std::allocator.32", align 1
  %5 = alloca ptr, align 8
  %6 = alloca i32, align 4
  %7 = load atomic i8, ptr @_ZGVN3nix16curlFileTransfer12TransferItem18successfulStatusesE acquire, align 8
  %8 = icmp eq i8 %7, 0
  br i1 %8, label %9, label %22

9:                                                ; preds = %0
  %10 = call i32 @__cxa_guard_acquire(ptr @_ZGVN3nix16curlFileTransfer12TransferItem18successfulStatusesE) #1
  %11 = icmp ne i32 %10, 0
  br i1 %11, label %12, label %22

12:                                               ; preds = %9
  call void @llvm.memcpy.p0.p0.i64(ptr align 8 %2, ptr align 8 @constinit, i64 48, i1 false)
  %13 = getelementptr inbounds %"class.std::initializer_list", ptr %1, i32 0, i32 0
  %14 = getelementptr inbounds [6 x i64], ptr %2, i64 0, i64 0
  store ptr %14, ptr %13, align 8
  %15 = getelementptr inbounds %"class.std::initializer_list", ptr %1, i32 0, i32 1
  store i64 6, ptr %15, align 8
  call void @_ZNSaIlEC2Ev(ptr noundef nonnull align 1 dereferenceable(1) %4) #1
  %16 = getelementptr inbounds { ptr, i64 }, ptr %1, i32 0, i32 0
  %17 = load ptr, ptr %16, align 8
  %18 = getelementptr inbounds { ptr, i64 }, ptr %1, i32 0, i32 1
  %19 = load i64, ptr %18, align 8
  invoke void @_ZNSt3setIlSt4lessIlESaIlEEC2ESt16initializer_listIlERKS1_RKS2_(ptr noundef nonnull align 8 dereferenceable(48) @_ZN3nix16curlFileTransfer12TransferItem18successfulStatusesE, ptr %17, i64 %19, ptr noundef nonnull align 1 dereferenceable(1) %3, ptr noundef nonnull align 1 dereferenceable(1) %4)
          to label %20 unwind label %23

20:                                               ; preds = %12
  call void @_ZNSaIlED2Ev(ptr noundef nonnull align 1 dereferenceable(1) %4) #1
  %21 = call i32 @__cxa_atexit(ptr @_ZNSt3setIlSt4lessIlESaIlEED2Ev, ptr @_ZN3nix16curlFileTransfer12TransferItem18successfulStatusesE, ptr @__dso_handle) #1
  call void @__cxa_guard_release(ptr @_ZGVN3nix16curlFileTransfer12TransferItem18successfulStatusesE) #1
  br label %22

22:                                               ; preds = %20, %9, %0
  ret void

23:                                               ; preds = %12
  %24 = landingpad { ptr, i32 }
          cleanup
  %25 = extractvalue { ptr, i32 } %24, 0
  store ptr %25, ptr %5, align 8
  %26 = extractvalue { ptr, i32 } %24, 1
  store i32 %26, ptr %6, align 4
  call void @_ZNSaIlED2Ev(ptr noundef nonnull align 1 dereferenceable(1) %4) #1
  call void @__cxa_guard_abort(ptr @_ZGVN3nix16curlFileTransfer12TransferItem18successfulStatusesE) #1
  br label %27

27:                                               ; preds = %23
  %28 = load ptr, ptr %5, align 8
  %29 = load i32, ptr %6, align 4
  %30 = insertvalue { ptr, i32 } poison, ptr %28, 0
  %31 = insertvalue { ptr, i32 } %30, i32 %29, 1
  resume { ptr, i32 } %31
}