; Function Attrs: uwtable
define internal void @__cxx_global_var_init.6() #6 section ".text.startup" comdat($_ZN3nix16curlFileTransfer12TransferItem18successfulStatusesE) personality ptr @__gxx_personality_v0 {
  %1 = alloca [6 x i64], align 8
  %2 = alloca %"struct.std::less.30", align 1
  %3 = alloca %"class.std::allocator.32", align 1
  %4 = load atomic i8, ptr @_ZGVN3nix16curlFileTransfer12TransferItem18successfulStatusesE acquire, align 8
  %5 = icmp eq i8 %4, 0
  br i1 %5, label %6, label %11

6:                                                ; preds = %0
  %7 = tail call i32 @__cxa_guard_acquire(ptr nonnull @_ZGVN3nix16curlFileTransfer12TransferItem18successfulStatusesE) #32
  %.not = icmp eq i32 %7, 0
  br i1 %.not, label %11, label %8

8:                                                ; preds = %6
  call void @llvm.memcpy.p0.p0.i64(ptr noundef nonnull align 8 dereferenceable(48) %1, ptr noundef nonnull align 8 dereferenceable(48) @constinit, i64 48, i1 false)
  invoke void @_ZNSt3setIlSt4lessIlESaIlEEC2ESt16initializer_listIlERKS1_RKS2_(ptr noundef nonnull align 8 dereferenceable(48) @_ZN3nix16curlFileTransfer12TransferItem18successfulStatusesE, ptr nonnull %1, i64 6, ptr noundef nonnull align 1 dereferenceable(1) %2, ptr noundef nonnull align 1 dereferenceable(1) %3)
          to label %9 unwind label %12

9:                                                ; preds = %8
  %10 = call i32 @__cxa_atexit(ptr nonnull @_ZNSt3setIlSt4lessIlESaIlEED2Ev, ptr nonnull @_ZN3nix16curlFileTransfer12TransferItem18successfulStatusesE, ptr nonnull @__dso_handle) #32
  call void @__cxa_guard_release(ptr nonnull @_ZGVN3nix16curlFileTransfer12TransferItem18successfulStatusesE) #32
  br label %11

11:                                               ; preds = %9, %6, %0
  ret void

12:                                               ; preds = %8
  %13 = landingpad { ptr, i32 }
          cleanup
  call void @__cxa_guard_abort(ptr nonnull @_ZGVN3nix16curlFileTransfer12TransferItem18successfulStatusesE) #32
  resume { ptr, i32 } %13
}